; Function Attrs: mustprogress uwtable
define void @_ZN3nix8readFileB5cxx11Ei(ptr dead_on_unwind noalias writable sret(%"class.std::__cxx11::basic_string") align 8 %0, i32 noundef %1) local_unnamed_addr #2 personality ptr @__gxx_personality_v0 {
  %3 = alloca %struct.stat, align 8
  %4 = call i32 @fstat(i32 noundef %1, ptr noundef nonnull %3) #29
  %5 = icmp eq i32 %4, -1
  br i1 %5, label %6, label %11

6:                                                ; preds = %2
  %7 = tail call ptr @__cxa_allocate_exception(i64 384) #29
  invoke void @_ZN3nix8SysErrorC2IJA14_cEEEDpRKT_(ptr noundef nonnull align 8 dereferenceable(380) %7, ptr noundef nonnull align 1 dereferenceable(14) @.str)
          to label %8 unwind label %9

8:                                                ; preds = %6
  tail call void @__cxa_throw(ptr nonnull %7, ptr nonnull @_ZTIN3nix8SysErrorE, ptr nonnull @_ZN3nix8SysErrorD2Ev) #30
  unreachable

9:                                                ; preds = %6
  %10 = landingpad { ptr, i32 }
          cleanup
  tail call void @__cxa_free_exception(ptr %7) #29
  resume { ptr, i32 } %10

11:                                               ; preds = %2
  %12 = getelementptr inbounds i8, ptr %3, i64 48
  %13 = load i64, ptr %12, align 8
  tail call void @_ZN3nix7drainFDB5cxx11Eibm(ptr dead_on_unwind writable sret(%"class.std::__cxx11::basic_string") align 8 %0, i32 noundef %1, i1 noundef zeroext true, i64 noundef %13)
  ret void
}